target datalayout = "e-m:e-p270:32:32-p271:32:32-p272:64:64-i64:64-i128:128-f80:128-n8:16:32:64-S128"
target triple = "x86_64-unknown-linux-gnu"

@.str = private unnamed_addr constant [3 x i8] c" \09\00", align 1
@.str.12 = private unnamed_addr constant [4 x i8] c" \09\0D\00", align 1

; Function Attrs: mustprogress uwtable
define internal noundef float @_ZN7tinyobjL9parseRealEPPKcd(ptr noundef %token, double noundef %default_value) #2 {
entry:
  %token.addr = alloca ptr, align 8
  %default_value.addr = alloca double, align 8
  %end = alloca ptr, align 8
  %val = alloca double, align 8
  %f = alloca float, align 4
  store ptr %token, ptr %token.addr, align 8
  store double %default_value, ptr %default_value.addr, align 8
  %0 = load ptr, ptr %token.addr, align 8
  %1 = load ptr, ptr %0, align 8
  %call = call i64 @strspn(ptr noundef %1, ptr noundef @.str) #15
  %2 = load ptr, ptr %token.addr, align 8
  %3 = load ptr, ptr %2, align 8
  %add.ptr = getelementptr inbounds i8, ptr %3, i64 %call
  store ptr %add.ptr, ptr %2, align 8
  %4 = load ptr, ptr %token.addr, align 8
  %5 = load ptr, ptr %4, align 8
  %6 = load ptr, ptr %token.addr, align 8
  %7 = load ptr, ptr %6, align 8
  %call1 = call i64 @strcspn(ptr noundef %7, ptr noundef @.str.12) #15
  %add.ptr2 = getelementptr inbounds i8, ptr %5, i64 %call1
  store ptr %add.ptr2, ptr %end, align 8
  %8 = load double, ptr %default_value.addr, align 8
  store double %8, ptr %val, align 8
  %9 = load ptr, ptr %token.addr, align 8
  %10 = load ptr, ptr %9, align 8
  %11 = load ptr, ptr %end, align 8
  %call3 = call noundef zeroext i1 @_ZN7tinyobjL14tryParseDoubleEPKcS1_Pd(ptr noundef %10, ptr noundef %11, ptr noundef %val)
  %12 = load double, ptr %val, align 8
  %conv = fptrunc double %12 to float
  store float %conv, ptr %f, align 4
  %13 = load ptr, ptr %end, align 8
  %14 = load ptr, ptr %token.addr, align 8
  store ptr %13, ptr %14, align 8
  %15 = load float, ptr %f, align 4
  ret float %15
}

; Function Attrs: mustprogress uwtable
define internal void @_ZN7tinyobjL10parseReal3EPfS0_S0_PPKcddd(ptr noundef %x, ptr noundef %y, ptr noundef %z, ptr noundef %token, double noundef %default_x, double noundef %default_y, double noundef %default_z) #2 {
entry:
  %x.addr = alloca ptr, align 8
  %y.addr = alloca ptr, align 8
  %z.addr = alloca ptr, align 8
  %token.addr = alloca ptr, align 8
  %default_x.addr = alloca double, align 8
  %default_y.addr = alloca double, align 8
  %default_z.addr = alloca double, align 8
  store ptr %x, ptr %x.addr, align 8
  store ptr %y, ptr %y.addr, align 8
  store ptr %z, ptr %z.addr, align 8
  store ptr %token, ptr %token.addr, align 8
  store double %default_x, ptr %default_x.addr, align 8
  store double %default_y, ptr %default_y.addr, align 8
  store double %default_z, ptr %default_z.addr, align 8
  %0 = load ptr, ptr %token.addr, align 8
  %1 = load double, ptr %default_x.addr, align 8
  %call = call noundef float @_ZN7tinyobjL9parseRealEPPKcd(ptr noundef %0, double noundef %1)
  %2 = load ptr, ptr %x.addr, align 8
  store float %call, ptr %2, align 4
  %3 = load ptr, ptr %token.addr, align 8
  %4 = load double, ptr %default_y.addr, align 8
  %call1 = call noundef float @_ZN7tinyobjL9parseRealEPPKcd(ptr noundef %3, double noundef %4)
  %5 = load ptr, ptr %y.addr, align 8
  store float %call1, ptr %5, align 4
  %6 = load ptr, ptr %token.addr, align 8
  %7 = load double, ptr %default_z.addr, align 8
  %call2 = call noundef float @_ZN7tinyobjL9parseRealEPPKcd(ptr noundef %6, double noundef %7)
  %8 = load ptr, ptr %z.addr, align 8
  store float %call2, ptr %8, align 4
  ret void
}