; Function Attrs: mustprogress uwtable
define internal fastcc void @_ZN7tinyobjL10parseReal3EPfS0_S0_PPKcddd(ptr nocapture noundef writeonly %x, ptr nocapture noundef writeonly %y, ptr nocapture noundef writeonly %z, ptr nocapture noundef %token, double noundef %default_x, double noundef %default_y, double noundef %default_z) unnamed_addr #3 {
entry:
  %val.i10 = alloca double, align 8
  %val.i3 = alloca double, align 8
  %val.i = alloca double, align 8
  call void @llvm.lifetime.start.p0(i64 8, ptr nonnull %val.i)
  %0 = load ptr, ptr %token, align 8
  %call.i = tail call i64 @strspn(ptr noundef %0, ptr noundef nonnull @.str) #25
  %add.ptr.i = getelementptr inbounds i8, ptr %0, i64 %call.i
  store ptr %add.ptr.i, ptr %token, align 8
  %call1.i = tail call i64 @strcspn(ptr noundef %add.ptr.i, ptr noundef nonnull @.str.12) #25
  %add.ptr2.i = getelementptr inbounds i8, ptr %add.ptr.i, i64 %call1.i
  store double %default_x, ptr %val.i, align 8
  %call3.i = call fastcc noundef zeroext i1 @_ZN7tinyobjL14tryParseDoubleEPKcS1_Pd(ptr noundef %add.ptr.i, ptr noundef %add.ptr2.i, ptr noundef nonnull %val.i)
  %1 = load double, ptr %val.i, align 8
  %conv.i = fptrunc double %1 to float
  store ptr %add.ptr2.i, ptr %token, align 8
  call void @llvm.lifetime.end.p0(i64 8, ptr nonnull %val.i)
  store float %conv.i, ptr %x, align 4
  call void @llvm.lifetime.start.p0(i64 8, ptr nonnull %val.i3)
  %2 = load ptr, ptr %token, align 8
  %call.i4 = tail call i64 @strspn(ptr noundef %2, ptr noundef nonnull @.str) #25
  %add.ptr.i5 = getelementptr inbounds i8, ptr %2, i64 %call.i4
  store ptr %add.ptr.i5, ptr %token, align 8
  %call1.i6 = tail call i64 @strcspn(ptr noundef %add.ptr.i5, ptr noundef nonnull @.str.12) #25
  %add.ptr2.i7 = getelementptr inbounds i8, ptr %add.ptr.i5, i64 %call1.i6
  store double %default_y, ptr %val.i3, align 8
  %call3.i8 = call fastcc noundef zeroext i1 @_ZN7tinyobjL14tryParseDoubleEPKcS1_Pd(ptr noundef %add.ptr.i5, ptr noundef %add.ptr2.i7, ptr noundef nonnull %val.i3)
  %3 = load double, ptr %val.i3, align 8
  %conv.i9 = fptrunc double %3 to float
  store ptr %add.ptr2.i7, ptr %token, align 8
  call void @llvm.lifetime.end.p0(i64 8, ptr nonnull %val.i3)
  store float %conv.i9, ptr %y, align 4
  call void @llvm.lifetime.start.p0(i64 8, ptr nonnull %val.i10)
  %4 = load ptr, ptr %token, align 8
  %call.i11 = tail call i64 @strspn(ptr noundef %4, ptr noundef nonnull @.str) #25
  %add.ptr.i12 = getelementptr inbounds i8, ptr %4, i64 %call.i11
  store ptr %add.ptr.i12, ptr %token, align 8
  %call1.i13 = tail call i64 @strcspn(ptr noundef %add.ptr.i12, ptr noundef nonnull @.str.12) #25
  %add.ptr2.i14 = getelementptr inbounds i8, ptr %add.ptr.i12, i64 %call1.i13
  store double %default_z, ptr %val.i10, align 8
  %call3.i15 = call fastcc noundef zeroext i1 @_ZN7tinyobjL14tryParseDoubleEPKcS1_Pd(ptr noundef %add.ptr.i12, ptr noundef %add.ptr2.i14, ptr noundef nonnull %val.i10)
  %5 = load double, ptr %val.i10, align 8
  %conv.i16 = fptrunc double %5 to float
  store ptr %add.ptr2.i14, ptr %token, align 8
  call void @llvm.lifetime.end.p0(i64 8, ptr nonnull %val.i10)
  store float %conv.i16, ptr %z, align 4
  ret void
}